target datalayout = "e-m:e-p270:32:32-p271:32:32-p272:64:64-i64:64-i128:128-f80:128-n8:16:32:64-S128"
target triple = "x86_64-pc-linux-gnu"

; Function Attrs: nounwind uwtable
define hidden i32 @psa_key_agreement_raw_builtin(ptr noundef %0, ptr noundef %1, i64 noundef %2, i32 noundef %3, ptr noundef %4, i64 noundef %5, ptr noundef %6, i64 noundef %7, ptr noundef %8) #0 {
  %10 = alloca i32, align 4
  %11 = alloca ptr, align 8
  %12 = alloca ptr, align 8
  %13 = alloca i64, align 8
  %14 = alloca i32, align 4
  %15 = alloca ptr, align 8
  %16 = alloca i64, align 8
  %17 = alloca ptr, align 8
  %18 = alloca i64, align 8
  %19 = alloca ptr, align 8
  store ptr %0, ptr %11, align 8, !tbaa !30
  store ptr %1, ptr %12, align 8, !tbaa !29
  store i64 %2, ptr %13, align 8, !tbaa !20
  store i32 %3, ptr %14, align 4, !tbaa !3
  store ptr %4, ptr %15, align 8, !tbaa !29
  store i64 %5, ptr %16, align 8, !tbaa !20
  store ptr %6, ptr %17, align 8, !tbaa !29
  store i64 %7, ptr %18, align 8, !tbaa !20
  store ptr %8, ptr %19, align 8, !tbaa !32
  %20 = load i32, ptr %14, align 4, !tbaa !3
  switch i32 %20, label %42 [
    i32 151126016, label %21
    i32 151060480, label %32
  ]

21:                                               ; preds = %9
  %22 = load ptr, ptr %11, align 8, !tbaa !30
  %23 = load ptr, ptr %12, align 8, !tbaa !29
  %24 = load i64, ptr %13, align 8, !tbaa !20
  %25 = load i32, ptr %14, align 4, !tbaa !3
  %26 = load ptr, ptr %15, align 8, !tbaa !29
  %27 = load i64, ptr %16, align 8, !tbaa !20
  %28 = load ptr, ptr %17, align 8, !tbaa !29
  %29 = load i64, ptr %18, align 8, !tbaa !20
  %30 = load ptr, ptr %19, align 8, !tbaa !32
  %31 = call i32 @mbedtls_psa_key_agreement_ecdh(ptr noundef %22, ptr noundef %23, i64 noundef %24, i32 noundef %25, ptr noundef %26, i64 noundef %27, ptr noundef %28, i64 noundef %29, ptr noundef %30)
  store i32 %31, ptr %10, align 4
  br label %43

32:                                               ; preds = %9
  %33 = load ptr, ptr %11, align 8, !tbaa !30
  %34 = load ptr, ptr %15, align 8, !tbaa !29
  %35 = load i64, ptr %16, align 8, !tbaa !20
  %36 = load ptr, ptr %12, align 8, !tbaa !29
  %37 = load i64, ptr %13, align 8, !tbaa !20
  %38 = load ptr, ptr %17, align 8, !tbaa !29
  %39 = load i64, ptr %18, align 8, !tbaa !20
  %40 = load ptr, ptr %19, align 8, !tbaa !32
  %41 = call i32 @mbedtls_psa_ffdh_key_agreement(ptr noundef %33, ptr noundef %34, i64 noundef %35, ptr noundef %36, i64 noundef %37, ptr noundef %38, i64 noundef %39, ptr noundef %40)
  store i32 %41, ptr %10, align 4
  br label %43

42:                                               ; preds = %9
  store i32 -134, ptr %10, align 4
  br label %43

43:                                               ; preds = %42, %32, %21
  %44 = load i32, ptr %10, align 4
  ret i32 %44
}