; Function Attrs: nounwind uwtable
define hidden i32 @psa_key_agreement_raw_builtin(ptr noundef %0, ptr noundef %1, i64 noundef %2, i32 noundef %3, ptr noundef %4, i64 noundef %5, ptr noundef %6, i64 noundef %7, ptr noundef %8) local_unnamed_addr #7 {
  switch i32 %3, label %14 [
    i32 151126016, label %10
    i32 151060480, label %12
  ]

10:                                               ; preds = %9
  %11 = tail call i32 @mbedtls_psa_key_agreement_ecdh(ptr noundef %0, ptr noundef %1, i64 noundef %2, i32 noundef 151126016, ptr noundef %4, i64 noundef %5, ptr noundef %6, i64 noundef %7, ptr noundef %8) #22
  br label %14

12:                                               ; preds = %9
  %13 = tail call i32 @mbedtls_psa_ffdh_key_agreement(ptr noundef %0, ptr noundef %4, i64 noundef %5, ptr noundef %1, i64 noundef %2, ptr noundef %6, i64 noundef %7, ptr noundef %8) #22
  br label %14

14:                                               ; preds = %9, %12, %10
  %.0 = phi i32 [ %13, %12 ], [ %11, %10 ], [ -134, %9 ]
  ret i32 %.0
}